; Function Attrs: nounwind uwtable
define zeroext range(i8 0, 2) i8 @l_Lean_Server_FileWorker_handleSemanticTokensRange___lambda__1(ptr noundef %0, ptr noundef %1) local_unnamed_addr #0 {
  %3 = tail call ptr @l_Lean_Server_Snapshots_Snapshot_endPos(ptr noundef %1) #7
  %4 = ptrtoint ptr %0 to i64
  %5 = and i64 %4, 1
  %6 = icmp ne i64 %5, 0
  %7 = ptrtoint ptr %3 to i64
  %8 = and i64 %7, 1
  %9 = icmp ne i64 %8, 0
  %or.cond = select i1 %6, i1 %9, i1 false
  br i1 %or.cond, label %lean_nat_le.exit.thread, label %lean_nat_le.exit, !prof !16

lean_nat_le.exit.thread:                          ; preds = %2
  %10 = icmp ule ptr %0, %3
  br label %lean_dec.exit

lean_nat_le.exit:                                 ; preds = %2
  %11 = tail call zeroext i1 @lean_nat_big_le(ptr noundef %0, ptr noundef %3) #7
  %.not = icmp eq i64 %8, 0
  br i1 %.not, label %12, label %lean_dec.exit

12:                                               ; preds = %lean_nat_le.exit
  %13 = load i32, ptr %3, align 4, !tbaa !8
  %14 = icmp sgt i32 %13, 1
  br i1 %14, label %15, label %17, !prof !14

15:                                               ; preds = %12
  %16 = add nsw i32 %13, -1
  store i32 %16, ptr %3, align 4, !tbaa !8
  br label %lean_dec.exit

17:                                               ; preds = %12
  %.not.i = icmp eq i32 %13, 0
  br i1 %.not.i, label %lean_dec.exit, label %18

18:                                               ; preds = %17
  tail call void @lean_dec_ref_cold(ptr noundef nonnull %3) #7
  br label %lean_dec.exit

lean_dec.exit:                                    ; preds = %lean_nat_le.exit.thread, %18, %17, %15, %lean_nat_le.exit
  %.0.i8 = phi i1 [ %10, %lean_nat_le.exit.thread ], [ %11, %18 ], [ %11, %17 ], [ %11, %15 ], [ %11, %lean_nat_le.exit ]
  %19 = zext i1 %.0.i8 to i8
  ret i8 %19
}